; Function Attrs: nofree norecurse nosync nounwind memory(readwrite, inaccessiblemem: none) uwtable
define void @Rwt_ManIncTravId(ptr noundef captures(none) %0) local_unnamed_addr #0 {
  %2 = getelementptr inbounds nuw i8, ptr %0, i64 96
  %3 = load i32, ptr %2, align 8, !tbaa !41
  %4 = add nsw i32 %3, 1
  store i32 %4, ptr %2, align 8, !tbaa !41
  %5 = icmp ult i32 %3, -1879048193
  br i1 %5, label %15, label %.preheader

.preheader:                                       ; preds = %1
  %6 = getelementptr inbounds nuw i8, ptr %0, i64 64
  %7 = load ptr, ptr %6, align 8, !tbaa !22
  %8 = getelementptr i8, ptr %7, i64 4
  %.val = load i32, ptr %8, align 4, !tbaa !23
  %9 = icmp sgt i32 %.val, 0
  br i1 %9, label %.lr.ph, label %.critedge

.lr.ph:                                           ; preds = %.preheader
  %10 = getelementptr i8, ptr %7, i64 8
  %.val7 = load ptr, ptr %10, align 8, !tbaa !29
  %wide.trip.count = zext nneg i32 %.val to i64
  br label %11

11:                                               ; preds = %.lr.ph, %11
  %indvars.iv = phi i64 [ 0, %.lr.ph ], [ %indvars.iv.next, %11 ]
  %12 = getelementptr inbounds nuw ptr, ptr %.val7, i64 %indvars.iv
  %13 = load ptr, ptr %12, align 8, !tbaa !30
  %14 = getelementptr inbounds nuw i8, ptr %13, i64 4
  store i32 0, ptr %14, align 4, !tbaa !27
  %indvars.iv.next = add nuw nsw i64 %indvars.iv, 1
  %exitcond.not = icmp eq i64 %indvars.iv.next, %wide.trip.count
  br i1 %exitcond.not, label %.critedge, label %11, !llvm.loop !43

.critedge:                                        ; preds = %11, %.preheader
  store i32 1, ptr %2, align 8, !tbaa !41
  br label %15

15:                                               ; preds = %1, %.critedge
  ret void
}